target datalayout = "e-m:e-p270:32:32-p271:32:32-p272:64:64-i64:64-i128:128-f80:128-n8:16:32:64-S128"
target triple = "x86_64-pc-linux-gnu"

%struct.tm = type { i32, i32, i32, i32, i32, i32, i32, i32, i32, i64, ptr }

@.str.191 = private unnamed_addr constant [9 x i8] c"metadata\00", align 1
@.str.536 = private unnamed_addr constant [34 x i8] c"creation_time=%Y-%m-%dT%H:%M:%S%z\00", align 1
@.str.537 = private unnamed_addr constant [65 x i8] c"%s is deprecated, set the 'creation_time' metadata tag instead.\0A\00", align 1

; Function Attrs: nounwind uwtable
define internal i32 @opt_recording_timestamp(ptr noundef %0, ptr noundef %1, ptr noundef %2) #0 {
  %4 = alloca i32, align 4
  %5 = alloca ptr, align 8
  %6 = alloca ptr, align 8
  %7 = alloca ptr, align 8
  %8 = alloca ptr, align 8
  %9 = alloca [128 x i8], align 16
  %10 = alloca i64, align 8
  %11 = alloca i32, align 4
  %12 = alloca %struct.tm, align 8
  %13 = alloca i32, align 4
  store ptr %0, ptr %5, align 8, !tbaa !26
  store ptr %1, ptr %6, align 8, !tbaa !23
  store ptr %2, ptr %7, align 8, !tbaa !23
  call void @llvm.lifetime.start.p0(i64 8, ptr %8) #12
  %14 = load ptr, ptr %5, align 8, !tbaa !26
  store ptr %14, ptr %8, align 8, !tbaa !151
  call void @llvm.lifetime.start.p0(i64 128, ptr %9) #12
  call void @llvm.lifetime.start.p0(i64 8, ptr %10) #12
  call void @llvm.lifetime.start.p0(i64 4, ptr %11) #12
  call void @llvm.lifetime.start.p0(i64 56, ptr %12) #12
  %15 = load ptr, ptr %7, align 8, !tbaa !23
  %16 = call i32 @av_parse_time(ptr noundef %10, ptr noundef %15, i32 noundef 0)
  store i32 %16, ptr %11, align 4, !tbaa !16
  %17 = load i32, ptr %11, align 4, !tbaa !16
  %18 = icmp slt i32 %17, 0
  br i1 %18, label %19, label %21

19:                                               ; preds = %3
  %20 = load i32, ptr %11, align 4, !tbaa !16
  store i32 %20, ptr %4, align 4
  store i32 1, ptr %13, align 4
  br label %36

21:                                               ; preds = %3
  %22 = load i64, ptr %10, align 8, !tbaa !56
  %23 = sitofp i64 %22 to double
  %24 = fdiv nsz double %23, 1.000000e+06
  %25 = fptosi double %24 to i64
  store i64 %25, ptr %10, align 8, !tbaa !56
  %26 = call ptr @gmtime(ptr noundef %10) #12
  call void @llvm.memcpy.p0.p0.i64(ptr align 8 %12, ptr align 8 %26, i64 56, i1 false), !tbaa.struct !173
  %27 = getelementptr inbounds [128 x i8], ptr %9, i64 0, i64 0
  %28 = call i64 @strftime(ptr noundef %27, i64 noundef 128, ptr noundef @.str.536, ptr noundef %12) #12
  %29 = icmp ne i64 %28, 0
  br i1 %29, label %31, label %30

30:                                               ; preds = %21
  store i32 -1, ptr %4, align 4
  store i32 1, ptr %13, align 4
  br label %36

31:                                               ; preds = %21
  %32 = load ptr, ptr %8, align 8, !tbaa !151
  %33 = getelementptr inbounds [128 x i8], ptr %9, i64 0, i64 0
  %34 = call i32 @parse_option(ptr noundef %32, ptr noundef @.str.191, ptr noundef %33, ptr noundef @options)
  %35 = load ptr, ptr %6, align 8, !tbaa !23
  call void (ptr, i32, ptr, ...) @av_log(ptr noundef null, i32 noundef 24, ptr noundef @.str.537, ptr noundef %35)
  store i32 0, ptr %4, align 4
  store i32 1, ptr %13, align 4
  br label %36

36:                                               ; preds = %31, %30, %19
  call void @llvm.lifetime.end.p0(i64 56, ptr %12) #12
  call void @llvm.lifetime.end.p0(i64 4, ptr %11) #12
  call void @llvm.lifetime.end.p0(i64 8, ptr %10) #12
  call void @llvm.lifetime.end.p0(i64 128, ptr %9) #12
  call void @llvm.lifetime.end.p0(i64 8, ptr %8) #12
  %37 = load i32, ptr %4, align 4
  ret i32 %37
}