; Function Attrs: nounwind uwtable
define internal range(i32 -2147483648, 1) i32 @opt_recording_timestamp(ptr noundef %0, ptr noundef %1, ptr noundef %2) #0 {
  %4 = alloca [128 x i8], align 16
  %5 = alloca i64, align 8
  %6 = alloca %struct.tm, align 8
  call void @llvm.lifetime.start.p0(i64 128, ptr nonnull %4) #15
  call void @llvm.lifetime.start.p0(i64 8, ptr nonnull %5) #15
  call void @llvm.lifetime.start.p0(i64 56, ptr nonnull %6) #15
  %7 = call i32 @av_parse_time(ptr noundef nonnull %5, ptr noundef %2, i32 noundef 0) #15
  %8 = icmp slt i32 %7, 0
  br i1 %8, label %18, label %9

9:                                                ; preds = %3
  %10 = load i64, ptr %5, align 8, !tbaa !39
  %11 = sitofp i64 %10 to double
  %12 = fdiv nsz double %11, 1.000000e+06
  %13 = fptosi double %12 to i64
  store i64 %13, ptr %5, align 8, !tbaa !39
  %14 = call ptr @gmtime(ptr noundef nonnull %5) #15
  call void @llvm.memcpy.p0.p0.i64(ptr noundef nonnull align 8 dereferenceable(56) %6, ptr noundef nonnull align 8 dereferenceable(56) %14, i64 56, i1 false), !tbaa.struct !153
  %15 = call i64 @strftime(ptr noundef nonnull %4, i64 noundef 128, ptr noundef nonnull @.str.536, ptr noundef nonnull %6) #15
  %.not = icmp eq i64 %15, 0
  br i1 %.not, label %18, label %16

16:                                               ; preds = %9
  %17 = call i32 @parse_option(ptr noundef %0, ptr noundef nonnull @.str.191, ptr noundef nonnull %4, ptr noundef nonnull @options) #15
  call void (ptr, i32, ptr, ...) @av_log(ptr noundef null, i32 noundef 24, ptr noundef nonnull @.str.537, ptr noundef %1) #15
  br label %18

18:                                               ; preds = %9, %3, %16
  %.0 = phi i32 [ 0, %16 ], [ %7, %3 ], [ -1, %9 ]
  call void @llvm.lifetime.end.p0(i64 56, ptr nonnull %6) #15
  call void @llvm.lifetime.end.p0(i64 8, ptr nonnull %5) #15
  call void @llvm.lifetime.end.p0(i64 128, ptr nonnull %4) #15
  ret i32 %.0
}